(dp0
I0
(iteam
Team
p1
(dp2
S'id'
p3
I0
sS'league'
p4
S'league1'
p5
sS'listOfSportsmen'
p6
(lp7
(isportsman
Sportsman
p8
(dp9
S'position'
p10
S'position1'
p11
sS'rating'
p12
S'50'
p13
sg3
I0
sS'sportsmanName'
p14
S'team1_player1'
p15
sba(isportsman
Sportsman
p16
(dp17
g10
g11
sg12
S'66'
p18
sg3
I0
sg14
S'team1_player2'
p19
sba(isportsman
Sportsman
p20
(dp21
g10
S'position2'
p22
sg12
S'90'
p23
sg3
I0
sg14
S'team1_player3'
p24
sba(isportsman
Sportsman
p25
(dp26
g10
g22
sg12
S'85'
p27
sg3
I0
sg14
S'team1_player4'
p28
sba(isportsman
Sportsman
p29
(dp30
g10
S'position3'
p31
sg12
g23
sg3
I0
sg14
S'team1_player5'
p32
sbasS'teamName'
p33
S'team1'
p34
sS'city'
p35
S'city1'
p36
sbsI1
(iteam
Team
p37
(dp38
g3
I1
sg4
S'league2'
p39
sg6
(lp40
(isportsman
Sportsman
p41
(dp42
g10
g11
sg12
g13
sg3
I1
sg14
S'team2_player1'
p43
sba(isportsman
Sportsman
p44
(dp45
g10
g22
sg12
S'60'
p46
sg3
I1
sg14
S'team2_player2'
p47
sba(isportsman
Sportsman
p48
(dp49
g10
g22
sg12
S'70'
p50
sg3
I1
sg14
S'team2_player3'
p51
sba(isportsman
Sportsman
p52
(dp53
g10
g31
sg12
S'80'
p54
sg3
I1
sg14
S'team2_player4'
p55
sba(isportsman
Sportsman
p56
(dp57
g10
g31
sg12
g23
sg3
I1
sg14
S'team2_player5'
p58
sbasg33
S'team2'
p59
sg35
S'city2'
p60
sbsI2
(iteam
Team
p61
(dp62
g3
I2
sg4
S'league3'
p63
sg6
(lp64
(isportsman
Sportsman
p65
(dp66
g10
g11
sg12
g13
sg3
I2
sg14
S'team3_player1'
p67
sba(isportsman
Sportsman
p68
(dp69
g10
g11
sg12
g13
sg3
I2
sg14
S'team3_player2'
p70
sba(isportsman
Sportsman
p71
(dp72
g10
g22
sg12
g50
sg3
I2
sg14
S'team3_player3'
p73
sba(isportsman
Sportsman
p74
(dp75
g10
g22
sg12
S'75'
p76
sg3
I2
sg14
S'team3_player4'
p77
sba(isportsman
Sportsman
p78
(dp79
g10
g22
sg12
g27
sg3
I2
sg14
S'team3_player5'
p80
sbasg33
S'team3'
p81
sg35
S'city3'
p82
sbsI3
(iteam
Team
p83
(dp84
g3
I3
sg4
S'league4'
p85
sg6
(lp86
(isportsman
Sportsman
p87
(dp88
g10
g11
sg12
g13
sg3
I3
sg14
S'team4_player1'
p89
sba(isportsman
Sportsman
p90
(dp91
g10
g11
sg12
g46
sg3
I3
sg14
S'team4_player2'
p92
sba(isportsman
Sportsman
p93
(dp94
g10
g22
sg12
g54
sg3
I3
sg14
S'team4_player3'
p95
sba(isportsman
Sportsman
p96
(dp97
g10
g22
sg12
g27
sg3
I3
sg14
S'team4_player4'
p98
sba(isportsman
Sportsman
p99
(dp100
g10
g22
sg12
S'95'
p101
sg3
I3
sg14
S'team4_player5'
p102
sbasg33
S'team4'
p103
sg35
S'city4'
p104
sbsI4
(iteam
Team
p105
(dp106
g3
I4
sg4
S'league5'
p107
sg6
(lp108
(isportsman
Sportsman
p109
(dp110
g10
g11
sg12
g13
sg3
I4
sg14
S'team5_player1'
p111
sba(isportsman
Sportsman
p112
(dp113
g10
g11
sg12
g46
sg3
I4
sg14
S'team5_player2'
p114
sba(isportsman
Sportsman
p115
(dp116
g10
g22
sg12
g54
sg3
I4
sg14
S'team5_player3'
p117
sba(isportsman
Sportsman
p118
(dp119
g10
g22
sg12
g101
sg3
I4
sg14
S'team5_player4'
p120
sba(isportsman
Sportsman
p121
(dp122
g10
g22
sg12
g101
sg3
I4
sg14
S'team5_player5'
p123
sbasg33
S'team5'
p124
sg35
S'city5'
p125
sbsI5
(iteam
Team
p126
(dp127
g6
(lp128
sg4
S'league'
p129
sg3
I5
sg33
S'newTeam'
p130
sg35
S'city'
p131
sbs.